; ModuleID = '24/2419.c'
source_filename = "24/2419.c"
target datalayout = "e-m:e-p270:32:32-p271:32:32-p272:64:64-i64:64-f80:128-n8:16:32:64-S128"
target triple = "x86_64-pc-linux-gnu"

@.str = private unnamed_addr constant [3 x i8] c"%c\00", align 1
@.str.1 = private unnamed_addr constant [2 x i8] c"\0A\00", align 1

; Function Attrs: noinline nounwind uwtable
define dso_local i32 @main() #0 {
  %1 = alloca i32, align 4
  %2 = alloca [10000 x i8], align 16
  %3 = alloca i32, align 4
  %4 = alloca i32, align 4
  %5 = alloca i32, align 4
  %6 = alloca i32, align 4
  %7 = alloca i32, align 4
  %8 = alloca i32, align 4
  %9 = alloca i32, align 4
  %10 = alloca i32, align 4
  store i32 0, i32* %1, align 4
  store i32 0, i32* %4, align 4
  store i32 10000, i32* %6, align 4
  store i32 0, i32* %10, align 4
  %11 = getelementptr inbounds [10000 x i8], [10000 x i8]* %2, i64 0, i64 0
  %12 = call i32 (i8*, ...) bitcast (i32 (...)* @gets to i32 (i8*, ...)*)(i8* %11)
  %13 = getelementptr inbounds [10000 x i8], [10000 x i8]* %2, i64 0, i64 0
  %14 = call i64 @strlen(i8* %13) #3
  %15 = trunc i64 %14 to i32
  store i32 %15, i32* %7, align 4
  store i32 0, i32* %8, align 4
  br label %16

16:                                               ; preds = %60, %0
  %17 = load i32, i32* %8, align 4
  %18 = load i32, i32* %7, align 4
  %19 = icmp sle i32 %17, %18
  br i1 %19, label %20, label %63

20:                                               ; preds = %16
  %21 = load i32, i32* %8, align 4
  %22 = sext i32 %21 to i64
  %23 = getelementptr inbounds [10000 x i8], [10000 x i8]* %2, i64 0, i64 %22
  %24 = load i8, i8* %23, align 1
  %25 = sext i8 %24 to i32
  %26 = icmp eq i32 %25, 32
  br i1 %26, label %38, label %27

27:                                               ; preds = %20
  %28 = load i32, i32* %8, align 4
  %29 = sext i32 %28 to i64
  %30 = getelementptr inbounds [10000 x i8], [10000 x i8]* %2, i64 0, i64 %29
  %31 = load i8, i8* %30, align 1
  %32 = sext i8 %31 to i32
  %33 = icmp eq i32 %32, 44
  br i1 %33, label %38, label %34

34:                                               ; preds = %27
  %35 = load i32, i32* %8, align 4
  %36 = load i32, i32* %7, align 4
  %37 = icmp eq i32 %35, %36
  br i1 %37, label %38, label %56

38:                                               ; preds = %34, %27, %20
  %39 = load i32, i32* %10, align 4
  %40 = load i32, i32* %6, align 4
  %41 = icmp slt i32 %39, %40
  br i1 %41, label %42, label %48

42:                                               ; preds = %38
  %43 = load i32, i32* %10, align 4
  %44 = icmp sgt i32 %43, 0
  br i1 %44, label %45, label %48

45:                                               ; preds = %42
  %46 = load i32, i32* %10, align 4
  store i32 %46, i32* %6, align 4
  %47 = load i32, i32* %8, align 4
  store i32 %47, i32* %5, align 4
  br label %48

48:                                               ; preds = %45, %42, %38
  %49 = load i32, i32* %10, align 4
  %50 = load i32, i32* %4, align 4
  %51 = icmp sgt i32 %49, %50
  br i1 %51, label %52, label %55

52:                                               ; preds = %48
  %53 = load i32, i32* %10, align 4
  store i32 %53, i32* %4, align 4
  %54 = load i32, i32* %8, align 4
  store i32 %54, i32* %3, align 4
  br label %55

55:                                               ; preds = %52, %48
  store i32 0, i32* %10, align 4
  br label %59

56:                                               ; preds = %34
  %57 = load i32, i32* %10, align 4
  %58 = add nsw i32 %57, 1
  store i32 %58, i32* %10, align 4
  br label %59

59:                                               ; preds = %56, %55
  br label %60

60:                                               ; preds = %59
  %61 = load i32, i32* %8, align 4
  %62 = add nsw i32 %61, 1
  store i32 %62, i32* %8, align 4
  br label %16

63:                                               ; preds = %16
  %64 = load i32, i32* %3, align 4
  %65 = load i32, i32* %4, align 4
  %66 = sub nsw i32 %64, %65
  store i32 %66, i32* %8, align 4
  br label %67

67:                                               ; preds = %78, %63
  %68 = load i32, i32* %8, align 4
  %69 = load i32, i32* %3, align 4
  %70 = icmp slt i32 %68, %69
  br i1 %70, label %71, label %81

71:                                               ; preds = %67
  %72 = load i32, i32* %8, align 4
  %73 = sext i32 %72 to i64
  %74 = getelementptr inbounds [10000 x i8], [10000 x i8]* %2, i64 0, i64 %73
  %75 = load i8, i8* %74, align 1
  %76 = sext i8 %75 to i32
  %77 = call i32 (i8*, ...) @printf(i8* getelementptr inbounds ([3 x i8], [3 x i8]* @.str, i64 0, i64 0), i32 %76)
  br label %78

78:                                               ; preds = %71
  %79 = load i32, i32* %8, align 4
  %80 = add nsw i32 %79, 1
  store i32 %80, i32* %8, align 4
  br label %67

81:                                               ; preds = %67
  %82 = call i32 (i8*, ...) @printf(i8* getelementptr inbounds ([2 x i8], [2 x i8]* @.str.1, i64 0, i64 0))
  %83 = load i32, i32* %5, align 4
  %84 = load i32, i32* %6, align 4
  %85 = sub nsw i32 %83, %84
  store i32 %85, i32* %8, align 4
  br label %86

86:                                               ; preds = %97, %81
  %87 = load i32, i32* %8, align 4
  %88 = load i32, i32* %5, align 4
  %89 = icmp slt i32 %87, %88
  br i1 %89, label %90, label %100

90:                                               ; preds = %86
  %91 = load i32, i32* %8, align 4
  %92 = sext i32 %91 to i64
  %93 = getelementptr inbounds [10000 x i8], [10000 x i8]* %2, i64 0, i64 %92
  %94 = load i8, i8* %93, align 1
  %95 = sext i8 %94 to i32
  %96 = call i32 (i8*, ...) @printf(i8* getelementptr inbounds ([3 x i8], [3 x i8]* @.str, i64 0, i64 0), i32 %95)
  br label %97

97:                                               ; preds = %90
  %98 = load i32, i32* %8, align 4
  %99 = add nsw i32 %98, 1
  store i32 %99, i32* %8, align 4
  br label %86

100:                                              ; preds = %86
  %101 = load i32, i32* %1, align 4
  ret i32 %101
}

declare dso_local i32 @gets(...) #1

; Function Attrs: nounwind readonly
declare dso_local i64 @strlen(i8*) #2

declare dso_local i32 @printf(i8*, ...) #1


!llvm.module.flags = !{!0}
!llvm.ident = !{!1}

!0 = !{i32 1, !"wchar_size", i32 4}
!1 = !{!"clang version 10.0.0-4ubuntu1 "}
